Archive member included to satisfy reference by file (symbol)

C:/devkitPro/devkitARM/bin/../lib/gcc/arm-none-eabi/13.2.0/../../../../arm-none-eabi/lib/armv6k/fpu\libg.a(libc_a-strncmp.o)
                              ipc.o (strncmp)
C:/devkitPro/devkitARM/bin/../lib/gcc/arm-none-eabi/13.2.0/../../../../arm-none-eabi/lib/armv6k/fpu\libg.a(libc_a-strlen-stub.o)
                              ControlService.o (strlen)
C:/devkitPro/devkitARM/bin/../lib/gcc/arm-none-eabi/13.2.0/../../../../arm-none-eabi/lib/armv6k/fpu\libg.a(libc_a-memmove.o)
                              ipc.o (memmove)
C:/devkitPro/devkitARM/bin/../lib/gcc/arm-none-eabi/13.2.0/../../../../arm-none-eabi/lib/armv6k/fpu\libg.a(libc_a-memcpy-stub.o)
                              fatalExceptionHandlersMain.o (memcpy)
C:/devkitPro/devkitARM/bin/../lib/gcc/arm-none-eabi/13.2.0/../../../../arm-none-eabi/lib/armv6k/fpu\libg.a(libc_a-memset.o)
                              main.o (memset)
C:/devkitPro/devkitARM/bin/../lib/gcc/arm-none-eabi/13.2.0/../../../../arm-none-eabi/lib/armv6k/fpu\libg.a(libc_a-strncpy.o)
                              ipc.o (strncpy)
C:/devkitPro/devkitARM/bin/../lib/gcc/arm-none-eabi/13.2.0/../../../../arm-none-eabi/lib/armv6k/fpu\libg.a(libc_a-strcmp.o)
                              fatalExceptionHandlersMain.o (strcmp)
C:/devkitPro/devkitARM/bin/../lib/gcc/arm-none-eabi/13.2.0/../../../../arm-none-eabi/lib/armv6k/fpu\libg.a(libc_a-init.o)
                              start.o (__libc_init_array)

Discarded input sections

 .text          0x00000000        0x0 C:/devkitPro/devkitARM/bin/../lib/gcc/arm-none-eabi/13.2.0/armv6k/fpu/crti.o
 .data          0x00000000        0x0 C:/devkitPro/devkitARM/bin/../lib/gcc/arm-none-eabi/13.2.0/armv6k/fpu/crti.o
 .bss           0x00000000        0x0 C:/devkitPro/devkitARM/bin/../lib/gcc/arm-none-eabi/13.2.0/armv6k/fpu/crti.o
 .text          0x00000000        0x0 C:/devkitPro/devkitARM/bin/../lib/gcc/arm-none-eabi/13.2.0/armv6k/fpu/crtbegin.o
 .data          0x00000000        0x0 C:/devkitPro/devkitARM/bin/../lib/gcc/arm-none-eabi/13.2.0/armv6k/fpu/crtbegin.o
 .bss           0x00000000        0x0 C:/devkitPro/devkitARM/bin/../lib/gcc/arm-none-eabi/13.2.0/armv6k/fpu/crtbegin.o
 .rodata.all_implied_fbits
                0x00000000       0x24 C:/devkitPro/devkitARM/bin/../lib/gcc/arm-none-eabi/13.2.0/armv6k/fpu/crtbegin.o
 .data.__dso_handle
                0x00000000        0x4 C:/devkitPro/devkitARM/bin/../lib/gcc/arm-none-eabi/13.2.0/armv6k/fpu/crtbegin.o
 .comment       0x00000000       0x24 C:/devkitPro/devkitARM/bin/../lib/gcc/arm-none-eabi/13.2.0/armv6k/fpu/crtbegin.o
 .text          0x00000000        0x0 debug.o
 .data          0x00000000        0x0 debug.o
 .bss           0x00000000        0x0 debug.o
 .comment       0x00000000       0x24 debug.o
 .text          0x00000000        0x0 fatalExceptionHandlersMain.o
 .data          0x00000000        0x0 fatalExceptionHandlersMain.o
 .bss           0x00000000        0x0 fatalExceptionHandlersMain.o
 .comment       0x00000000       0x24 fatalExceptionHandlersMain.o
 .text          0x00000000        0x0 globals.o
 .data          0x00000000        0x0 globals.o
 .bss           0x00000000        0x0 globals.o
 .comment       0x00000000       0x24 globals.o
 .text          0x00000000        0x0 ipc.o
 .data          0x00000000        0x0 ipc.o
 .bss           0x00000000        0x0 ipc.o
 .text.SessionInfo_ChangeVtable
                0x00000000       0x80 ipc.o
 .comment       0x00000000       0x24 ipc.o
 .text          0x00000000        0x0 main.o
 .data          0x00000000        0x0 main.o
 .bss           0x00000000        0x0 main.o
 .comment       0x00000000       0x24 main.o
 .text          0x00000000        0x0 mmu.o
 .data          0x00000000        0x0 mmu.o
 .bss           0x00000000        0x0 mmu.o
 .text.L1Descriptor__GetType
                0x00000000       0x30 mmu.o
 .text.L2Descriptor__GetType
                0x00000000       0x24 mmu.o
 .comment       0x00000000       0x24 mmu.o
 .text          0x00000000        0x0 svc.o
 .data          0x00000000        0x0 svc.o
 .bss           0x00000000        0x0 svc.o
 .comment       0x00000000       0x24 svc.o
 .text          0x00000000        0x0 synchronization.o
 .data          0x00000000        0x0 synchronization.o
 .bss           0x00000000        0x0 synchronization.o
 .comment       0x00000000       0x24 synchronization.o
 .text          0x00000000        0x0 ConnectToPort.o
 .data          0x00000000        0x0 ConnectToPort.o
 .bss           0x00000000        0x0 ConnectToPort.o
 .comment       0x00000000       0x24 ConnectToPort.o
 .text          0x00000000        0x0 ControlMemory.o
 .data          0x00000000        0x0 ControlMemory.o
 .bss           0x00000000        0x0 ControlMemory.o
 .comment       0x00000000       0x24 ControlMemory.o
 .text          0x00000000        0x0 ControlMemoryUnsafe.o
 .data          0x00000000        0x0 ControlMemoryUnsafe.o
 .bss           0x00000000        0x0 ControlMemoryUnsafe.o
 .comment       0x00000000       0x24 ControlMemoryUnsafe.o
 .text          0x00000000        0x0 ControlProcess.o
 .data          0x00000000        0x0 ControlProcess.o
 .bss           0x00000000        0x0 ControlProcess.o
 .comment       0x00000000       0x24 ControlProcess.o
 .text          0x00000000        0x0 ControlService.o
 .data          0x00000000        0x0 ControlService.o
 .bss           0x00000000        0x0 ControlService.o
 .comment       0x00000000       0x24 ControlService.o
 .text          0x00000000        0x0 CopyHandle.o
 .data          0x00000000        0x0 CopyHandle.o
 .bss           0x00000000        0x0 CopyHandle.o
 .comment       0x00000000       0x24 CopyHandle.o
 .text          0x00000000        0x0 CreateThread.o
 .data          0x00000000        0x0 CreateThread.o
 .bss           0x00000000        0x0 CreateThread.o
 .comment       0x00000000       0x24 CreateThread.o
 .text          0x00000000        0x0 ExitProcess.o
 .data          0x00000000        0x0 ExitProcess.o
 .bss           0x00000000        0x0 ExitProcess.o
 .comment       0x00000000       0x24 ExitProcess.o
 .text          0x00000000        0x0 GetHandleInfo.o
 .data          0x00000000        0x0 GetHandleInfo.o
 .bss           0x00000000        0x0 GetHandleInfo.o
 .comment       0x00000000       0x24 GetHandleInfo.o
 .text          0x00000000        0x0 GetProcessInfo.o
 .data          0x00000000        0x0 GetProcessInfo.o
 .bss           0x00000000        0x0 GetProcessInfo.o
 .comment       0x00000000       0x24 GetProcessInfo.o
 .text          0x00000000        0x0 GetSystemInfo.o
 .data          0x00000000        0x0 GetSystemInfo.o
 .bss           0x00000000        0x0 GetSystemInfo.o
 .comment       0x00000000       0x24 GetSystemInfo.o
 .text          0x00000000        0x0 GetThreadInfo.o
 .data          0x00000000        0x0 GetThreadInfo.o
 .bss           0x00000000        0x0 GetThreadInfo.o
 .comment       0x00000000       0x24 GetThreadInfo.o
 .text          0x00000000        0x0 KernelSetState.o
 .data          0x00000000        0x0 KernelSetState.o
 .bss           0x00000000        0x0 KernelSetState.o
 .comment       0x00000000       0x24 KernelSetState.o
 .text          0x00000000        0x0 MapProcessMemoryEx.o
 .data          0x00000000        0x0 MapProcessMemoryEx.o
 .bss           0x00000000        0x0 MapProcessMemoryEx.o
 .comment       0x00000000       0x24 MapProcessMemoryEx.o
 .text          0x00000000        0x0 SendSyncRequest.o
 .data          0x00000000        0x0 SendSyncRequest.o
 .bss           0x00000000        0x0 SendSyncRequest.o
 .comment       0x00000000       0x24 SendSyncRequest.o
 .text          0x00000000        0x0 SetGpuProt.o
 .data          0x00000000        0x0 SetGpuProt.o
 .bss           0x00000000        0x0 SetGpuProt.o
 .comment       0x00000000       0x24 SetGpuProt.o
 .text          0x00000000        0x0 SetWifiEnabled.o
 .data          0x00000000        0x0 SetWifiEnabled.o
 .bss           0x00000000        0x0 SetWifiEnabled.o
 .comment       0x00000000       0x24 SetWifiEnabled.o
 .text          0x00000000        0x0 TranslateHandle.o
 .data          0x00000000        0x0 TranslateHandle.o
 .bss           0x00000000        0x0 TranslateHandle.o
 .comment       0x00000000       0x24 TranslateHandle.o
 .text          0x00000000        0x0 UnmapProcessMemoryEx.o
 .data          0x00000000        0x0 UnmapProcessMemoryEx.o
 .bss           0x00000000        0x0 UnmapProcessMemoryEx.o
 .comment       0x00000000       0x24 UnmapProcessMemoryEx.o
 .data          0x00000000        0x0 fatalExceptionHandlers.o
 .text          0x00000000        0x0 start.o
 .data          0x00000000        0x0 start.o
 .bss           0x00000000        0x0 start.o
 .data          0x00000000        0x0 svcHandler.o
 .bss           0x00000000        0x0 svcHandler.o
 .data          0x00000000        0x0 utils.o
 .bss           0x00000000        0x0 utils.o
 .data          0x00000000        0x0 Backdoor.o
 .bss           0x00000000        0x0 Backdoor.o
 .data          0x00000000        0x0 Break.o
 .bss           0x00000000        0x0 Break.o
 .data          0x00000000        0x0 CustomBackdoor.o
 .bss           0x00000000        0x0 CustomBackdoor.o
 .data          0x00000000        0x0 wrappers.o
 .bss           0x00000000        0x0 wrappers.o
 .text          0x00000000        0x0 C:/devkitPro/devkitARM/bin/../lib/gcc/arm-none-eabi/13.2.0/../../../../arm-none-eabi/lib/armv6k/fpu\libg.a(libc_a-strncmp.o)
 .data          0x00000000        0x0 C:/devkitPro/devkitARM/bin/../lib/gcc/arm-none-eabi/13.2.0/../../../../arm-none-eabi/lib/armv6k/fpu\libg.a(libc_a-strncmp.o)
 .bss           0x00000000        0x0 C:/devkitPro/devkitARM/bin/../lib/gcc/arm-none-eabi/13.2.0/../../../../arm-none-eabi/lib/armv6k/fpu\libg.a(libc_a-strncmp.o)
 .comment       0x00000000       0x24 C:/devkitPro/devkitARM/bin/../lib/gcc/arm-none-eabi/13.2.0/../../../../arm-none-eabi/lib/armv6k/fpu\libg.a(libc_a-strncmp.o)
 .text          0x00000000        0x0 C:/devkitPro/devkitARM/bin/../lib/gcc/arm-none-eabi/13.2.0/../../../../arm-none-eabi/lib/armv6k/fpu\libg.a(libc_a-strlen-stub.o)
 .data          0x00000000        0x0 C:/devkitPro/devkitARM/bin/../lib/gcc/arm-none-eabi/13.2.0/../../../../arm-none-eabi/lib/armv6k/fpu\libg.a(libc_a-strlen-stub.o)
 .bss           0x00000000        0x0 C:/devkitPro/devkitARM/bin/../lib/gcc/arm-none-eabi/13.2.0/../../../../arm-none-eabi/lib/armv6k/fpu\libg.a(libc_a-strlen-stub.o)
 .comment       0x00000000       0x24 C:/devkitPro/devkitARM/bin/../lib/gcc/arm-none-eabi/13.2.0/../../../../arm-none-eabi/lib/armv6k/fpu\libg.a(libc_a-strlen-stub.o)
 .text          0x00000000        0x0 C:/devkitPro/devkitARM/bin/../lib/gcc/arm-none-eabi/13.2.0/../../../../arm-none-eabi/lib/armv6k/fpu\libg.a(libc_a-memmove.o)
 .data          0x00000000        0x0 C:/devkitPro/devkitARM/bin/../lib/gcc/arm-none-eabi/13.2.0/../../../../arm-none-eabi/lib/armv6k/fpu\libg.a(libc_a-memmove.o)
 .bss           0x00000000        0x0 C:/devkitPro/devkitARM/bin/../lib/gcc/arm-none-eabi/13.2.0/../../../../arm-none-eabi/lib/armv6k/fpu\libg.a(libc_a-memmove.o)
 .comment       0x00000000       0x24 C:/devkitPro/devkitARM/bin/../lib/gcc/arm-none-eabi/13.2.0/../../../../arm-none-eabi/lib/armv6k/fpu\libg.a(libc_a-memmove.o)
 .text          0x00000000        0x0 C:/devkitPro/devkitARM/bin/../lib/gcc/arm-none-eabi/13.2.0/../../../../arm-none-eabi/lib/armv6k/fpu\libg.a(libc_a-memcpy-stub.o)
 .data          0x00000000        0x0 C:/devkitPro/devkitARM/bin/../lib/gcc/arm-none-eabi/13.2.0/../../../../arm-none-eabi/lib/armv6k/fpu\libg.a(libc_a-memcpy-stub.o)
 .bss           0x00000000        0x0 C:/devkitPro/devkitARM/bin/../lib/gcc/arm-none-eabi/13.2.0/../../../../arm-none-eabi/lib/armv6k/fpu\libg.a(libc_a-memcpy-stub.o)
 .comment       0x00000000       0x24 C:/devkitPro/devkitARM/bin/../lib/gcc/arm-none-eabi/13.2.0/../../../../arm-none-eabi/lib/armv6k/fpu\libg.a(libc_a-memcpy-stub.o)
 .text          0x00000000        0x0 C:/devkitPro/devkitARM/bin/../lib/gcc/arm-none-eabi/13.2.0/../../../../arm-none-eabi/lib/armv6k/fpu\libg.a(libc_a-memset.o)
 .data          0x00000000        0x0 C:/devkitPro/devkitARM/bin/../lib/gcc/arm-none-eabi/13.2.0/../../../../arm-none-eabi/lib/armv6k/fpu\libg.a(libc_a-memset.o)
 .bss           0x00000000        0x0 C:/devkitPro/devkitARM/bin/../lib/gcc/arm-none-eabi/13.2.0/../../../../arm-none-eabi/lib/armv6k/fpu\libg.a(libc_a-memset.o)
 .comment       0x00000000       0x24 C:/devkitPro/devkitARM/bin/../lib/gcc/arm-none-eabi/13.2.0/../../../../arm-none-eabi/lib/armv6k/fpu\libg.a(libc_a-memset.o)
 .text          0x00000000        0x0 C:/devkitPro/devkitARM/bin/../lib/gcc/arm-none-eabi/13.2.0/../../../../arm-none-eabi/lib/armv6k/fpu\libg.a(libc_a-strncpy.o)
 .data          0x00000000        0x0 C:/devkitPro/devkitARM/bin/../lib/gcc/arm-none-eabi/13.2.0/../../../../arm-none-eabi/lib/armv6k/fpu\libg.a(libc_a-strncpy.o)
 .bss           0x00000000        0x0 C:/devkitPro/devkitARM/bin/../lib/gcc/arm-none-eabi/13.2.0/../../../../arm-none-eabi/lib/armv6k/fpu\libg.a(libc_a-strncpy.o)
 .comment       0x00000000       0x24 C:/devkitPro/devkitARM/bin/../lib/gcc/arm-none-eabi/13.2.0/../../../../arm-none-eabi/lib/armv6k/fpu\libg.a(libc_a-strncpy.o)
 .data          0x00000000        0x0 C:/devkitPro/devkitARM/bin/../lib/gcc/arm-none-eabi/13.2.0/../../../../arm-none-eabi/lib/armv6k/fpu\libg.a(libc_a-strcmp.o)
 .bss           0x00000000        0x0 C:/devkitPro/devkitARM/bin/../lib/gcc/arm-none-eabi/13.2.0/../../../../arm-none-eabi/lib/armv6k/fpu\libg.a(libc_a-strcmp.o)
 .text          0x00000000        0x0 C:/devkitPro/devkitARM/bin/../lib/gcc/arm-none-eabi/13.2.0/../../../../arm-none-eabi/lib/armv6k/fpu\libg.a(libc_a-init.o)
 .data          0x00000000        0x0 C:/devkitPro/devkitARM/bin/../lib/gcc/arm-none-eabi/13.2.0/../../../../arm-none-eabi/lib/armv6k/fpu\libg.a(libc_a-init.o)
 .bss           0x00000000        0x0 C:/devkitPro/devkitARM/bin/../lib/gcc/arm-none-eabi/13.2.0/../../../../arm-none-eabi/lib/armv6k/fpu\libg.a(libc_a-init.o)
 .comment       0x00000000       0x24 C:/devkitPro/devkitARM/bin/../lib/gcc/arm-none-eabi/13.2.0/../../../../arm-none-eabi/lib/armv6k/fpu\libg.a(libc_a-init.o)
 .text          0x00000000        0x0 C:/devkitPro/devkitARM/bin/../lib/gcc/arm-none-eabi/13.2.0/armv6k/fpu/crtend.o
 .data          0x00000000        0x0 C:/devkitPro/devkitARM/bin/../lib/gcc/arm-none-eabi/13.2.0/armv6k/fpu/crtend.o
 .bss           0x00000000        0x0 C:/devkitPro/devkitARM/bin/../lib/gcc/arm-none-eabi/13.2.0/armv6k/fpu/crtend.o
 .rodata.all_implied_fbits
                0x00000000       0x24 C:/devkitPro/devkitARM/bin/../lib/gcc/arm-none-eabi/13.2.0/armv6k/fpu/crtend.o
 .eh_frame      0x00000000        0x4 C:/devkitPro/devkitARM/bin/../lib/gcc/arm-none-eabi/13.2.0/armv6k/fpu/crtend.o
 .comment       0x00000000       0x24 C:/devkitPro/devkitARM/bin/../lib/gcc/arm-none-eabi/13.2.0/armv6k/fpu/crtend.o
 .ARM.attributes
                0x00000000       0x30 C:/devkitPro/devkitARM/bin/../lib/gcc/arm-none-eabi/13.2.0/armv6k/fpu/crtend.o
 .text          0x00000000        0x0 C:/devkitPro/devkitARM/bin/../lib/gcc/arm-none-eabi/13.2.0/armv6k/fpu/crtn.o
 .data          0x00000000        0x0 C:/devkitPro/devkitARM/bin/../lib/gcc/arm-none-eabi/13.2.0/armv6k/fpu/crtn.o
 .bss           0x00000000        0x0 C:/devkitPro/devkitARM/bin/../lib/gcc/arm-none-eabi/13.2.0/armv6k/fpu/crtn.o

Memory Configuration

Name             Origin             Length             Attributes
vram             0x18000000         0x00180000
main             0x70000000         0x00100000
*default*        0x00000000         0xffffffff

Linker script and memory map

                0x70000000                        PROVIDE (__start__ = ORIGIN (main))
                0x70000000                        . = ABSOLUTE (__start__)

.text           0x70000000     0x6fc0 load address 0x18000000
 *(.text.start)
 .text.start    0x70000000       0x78 start.o
                0x70000000                _start
 *(.init)
 .init          0x70000078        0xc C:/devkitPro/devkitARM/bin/../lib/gcc/arm-none-eabi/13.2.0/armv6k/fpu/crti.o
                0x70000078                _init
 .init          0x70000084        0xc C:/devkitPro/devkitARM/bin/../lib/gcc/arm-none-eabi/13.2.0/armv6k/fpu/crtn.o
 *(.text)
 *fill*         0x70000090       0x10 
 .text          0x700000a0      0x32c fatalExceptionHandlers.o
                0x700001dc                FIQHandler
                0x70000220                undefinedInstructionHandler
                0x700002bc                prefetchAbortHandler
                0x7000032c                dataAbortHandler
 *fill*         0x700003cc       0x14 
 .text          0x700003e0      0x134 svcHandler.o
                0x700003e0                svcHandler
 .text          0x70000514      0x13c utils.o
                0x70000514                convertVAToPA
                0x70000554                flushEntireDataCache
                0x70000564                invalidateEntireInstructionCache
                0x70000574                KObjectMutex__Acquire
                0x700005a0                KObjectMutex__Release
                0x700005c4                KProcessHwInfo__MapL1Section_Hook
                0x700005e8                KProcessHwInfo__MapL2Section_Hook
                0x7000060c                safecpy
 .text          0x70000650       0x28 Backdoor.o
                0x70000650                Backdoor
 .text          0x70000678       0x10 Break.o
                0x70000678                Break
 .text          0x70000688       0x1c CustomBackdoor.o
                0x70000688                CustomBackdoor
 .text          0x700006a4      0x138 wrappers.o
                0x700006a4                GetHandleInfoHookWrapper
                0x700006b8                GetSystemInfoHookWrapper
                0x700006cc                GetProcessInfoHookWrapper
                0x700006e0                GetThreadInfoHookWrapper
                0x700006f4                ConnectToPortHookWrapper
                0x70000708                CopyHandleWrapper
                0x7000071c                TranslateHandleWrapper
                0x70000730                ControlMemoryHookWrapper
                0x70000750                ExitProcessHookWrapper
                0x7000075c                ControlMemoryEx
                0x7000078c                CreateThreadHookWrapper
                0x700007b0                ControlMemoryUnsafeWrapper
                0x700007c4                MapProcessMemoryExWrapper
 *fill*         0x700007dc        0x4 
 .text          0x700007e0      0x390 C:/devkitPro/devkitARM/bin/../lib/gcc/arm-none-eabi/13.2.0/../../../../arm-none-eabi/lib/armv6k/fpu\libg.a(libc_a-strcmp.o)
                0x700007e8                strcmp
 *(.text.*)
 .text.__do_global_dtors_aux
                0x70000b70       0x40 C:/devkitPro/devkitARM/bin/../lib/gcc/arm-none-eabi/13.2.0/armv6k/fpu/crtbegin.o
 .text.frame_dummy
                0x70000bb0       0x2c C:/devkitPro/devkitARM/bin/../lib/gcc/arm-none-eabi/13.2.0/armv6k/fpu/crtbegin.o
 .text.enableMonitorModeDebugging
                0x70000bdc       0x38 debug.o
                0x70000bdc                enableMonitorModeDebugging
 .text.disableWatchpoint
                0x70000c14       0x74 debug.o
                0x70000c14                disableWatchpoint
 .text.setWatchpointWithContextId
                0x70000c88       0xe8 debug.o
                0x70000c88                setWatchpointWithContextId
 .text.checkExceptionHandlerValidity
                0x70000d70       0xdc fatalExceptionHandlersMain.o
 .text.isExceptionFatal
                0x70000e4c      0x15c fatalExceptionHandlersMain.o
                0x70000e4c                isExceptionFatal
 .text.isDataAbortExceptionRangeControlled
                0x70000fa8       0x7c fatalExceptionHandlersMain.o
                0x70000fa8                isDataAbortExceptionRangeControlled
 .text.fatalExceptionHandlersMain
                0x70001024      0x1a4 fatalExceptionHandlersMain.o
                0x70001024                fatalExceptionHandlersMain
 .text.KLinkedList__Initialize
                0x700011c8       0x18 globals.o
                0x700011c8                KLinkedList__Initialize
 .text.PLG_SignalEvent
                0x700011e0      0x164 globals.o
                0x700011e0                PLG_SignalEvent
 .text.PLG__WakeAppThread
                0x70001344       0x1c globals.o
                0x70001344                PLG__WakeAppThread
 .text.PLG_GetStatus
                0x70001360       0x24 globals.o
                0x70001360                PLG_GetStatus
 .text.SessionInfo_FindClosestSlot
                0x70001384       0x94 ipc.o
 .text.SessionInfo_Lookup
                0x70001418       0xa4 ipc.o
                0x70001418                SessionInfo_Lookup
 .text.SessionInfo_FindFirst
                0x700014bc       0xe4 ipc.o
                0x700014bc                SessionInfo_FindFirst
 .text.SessionInfo_Add
                0x700015a0      0x1a8 ipc.o
                0x700015a0                SessionInfo_Add
 .text.SessionInfo_Remove
                0x70001748       0xf0 ipc.o
                0x70001748                SessionInfo_Remove
 .text.KSession__dtor_hook
                0x70001838       0x24 ipc.o
 .text.doLangEmu
                0x7000185c      0x1ec ipc.o
                0x7000185c                doLangEmu
 .text.doErrfThrowHook
                0x70001a48       0xa8 ipc.o
                0x70001a48                doErrfThrowHook
 .text.relocateAndSetupMMU
                0x70001af0      0x150 main.o
                0x70001af0                relocateAndSetupMMU
 .text.bindSGI0Hook
                0x70001c40       0x5c main.o
                0x70001c40                bindSGI0Hook
 .text.configHook
                0x70001c9c      0x134 main.o
                0x70001c9c                configHook
 .text.startup.main
                0x70001dd0     0x10f0 main.o
                0x70001dd0                main
 .text.L2MMUTable__RWXForAll
                0x70002ec0       0x6c mmu.o
                0x70002ec0                L2MMUTable__RWXForAll
 .text.L1MMUTable__RWXForAll
                0x70002f2c       0x9c mmu.o
                0x70002f2c                L1MMUTable__RWXForAll
 .text.L2MMUTable__GetPAFromVA
                0x70002fc8       0x4c mmu.o
                0x70002fc8                L2MMUTable__GetPAFromVA
 .text.L1MMUTable__GetPAFromVA
                0x70003014       0x60 mmu.o
                0x70003014                L1MMUTable__GetPAFromVA
 .text.L2MMUTable__GetAddressUserPerm
                0x70003074       0xa0 mmu.o
                0x70003074                L2MMUTable__GetAddressUserPerm
 .text.L1MMUTable__GetAddressUserPerm
                0x70003114       0xb0 mmu.o
                0x70003114                L1MMUTable__GetAddressUserPerm
 .text.KProcessHwInfo__SetMMUTableToRWX
                0x700031c4       0x58 mmu.o
                0x700031c4                KProcessHwInfo__SetMMUTableToRWX
 .text.KProcessHwInfo__GetPAFromVA
                0x7000321c       0x6c mmu.o
                0x7000321c                KProcessHwInfo__GetPAFromVA
 .text.KProcessHwInfo__GetAddressUserPerm
                0x70003288       0x6c mmu.o
                0x70003288                KProcessHwInfo__GetAddressUserPerm
 .text.PatchDescriptorAccessControl
                0x700032f4       0xdc mmu.o
                0x700032f4                PatchDescriptorAccessControl
 .text.BreakHook
                0x700033d0       0x34 svc.o
 .text.buildAlteredSvcTable
                0x70003404      0x190 svc.o
                0x70003404                buildAlteredSvcTable
 .text.signalSvcEntry
                0x70003594       0x5c svc.o
                0x70003594                signalSvcEntry
 .text.signalSvcReturn
                0x700035f0      0x100 svc.o
                0x700035f0                signalSvcReturn
 .text.postprocessSvc
                0x700036f0       0x68 svc.o
                0x700036f0                postprocessSvc
 .text.executeFunctionOnCores
                0x70003758       0x28 synchronization.o
                0x70003758                executeFunctionOnCores
 .text.KScheduler__TriggerCrossCoreInterrupt
                0x70003780       0x68 synchronization.o
                0x70003780                KScheduler__TriggerCrossCoreInterrupt
 .text.KThread__DebugReschedule
                0x700037e8       0x70 synchronization.o
                0x700037e8                KThread__DebugReschedule
 .text.rosalinaRescheduleThread
                0x70003858       0x78 synchronization.o
                0x70003858                rosalinaRescheduleThread
 .text.rosalinaThreadLockPredicate
                0x700038d0      0x100 synchronization.o
                0x700038d0                rosalinaThreadLockPredicate
 .text.rosalinaLockThreads
                0x700039d0      0x254 synchronization.o
                0x700039d0                rosalinaLockThreads
 .text.rosalinaUnlockThreads
                0x70003c24       0x78 synchronization.o
                0x70003c24                rosalinaUnlockThreads
 .text.ConnectToPortHook
                0x70003c9c      0x100 ConnectToPort.o
                0x70003c9c                ConnectToPortHook
 .text.ControlMemoryHook
                0x70003d9c       0x58 ControlMemory.o
                0x70003d9c                ControlMemoryHook
 .text.ControlMemoryUnsafe
                0x70003df4      0x1a0 ControlMemoryUnsafe.o
                0x70003df4                ControlMemoryUnsafe
 .text.rescheduleThread
                0x70003f94       0x70 ControlProcess.o
 .text.ControlProcess
                0x70004004      0x618 ControlProcess.o
                0x70004004                ControlProcess
 .text.ControlService
                0x7000461c      0x2c0 ControlService.o
                0x7000461c                ControlService
 .text.CopyHandle
                0x700048dc      0x1c8 CopyHandle.o
                0x700048dc                CopyHandle
 .text.CreateThreadHook
                0x70004aa4       0xa4 CreateThread.o
                0x70004aa4                CreateThreadHook
 .text.ExitProcessHook
                0x70004b48      0x10c ExitProcess.o
                0x70004b48                ExitProcessHook
 .text.GetHandleInfoHook
                0x70004c54      0x390 GetHandleInfo.o
                0x70004c54                GetHandleInfoHook
 .text.GetProcessInfoHook
                0x70004fe4      0x298 GetProcessInfo.o
                0x70004fe4                GetProcessInfoHook
 .text.GetSystemInfoHook
                0x7000527c      0x5bc GetSystemInfo.o
                0x7000527c                GetSystemInfoHook
 .text.GetThreadInfoHook
                0x70005838       0xa8 GetThreadInfo.o
                0x70005838                GetThreadInfoHook
 .text.shouldSignalSyscallDebugEvent
                0x700058e0       0x90 KernelSetState.o
                0x700058e0                shouldSignalSyscallDebugEvent
 .text.SetSyscallDebugEventMask
                0x70005970      0x1fc KernelSetState.o
                0x70005970                SetSyscallDebugEventMask
 .text.KernelSetStateHook
                0x70005b6c      0x3b4 KernelSetState.o
                0x70005b6c                KernelSetStateHook
 .text.MapProcessMemoryEx
                0x70005f20      0x1cc MapProcessMemoryEx.o
                0x70005f20                MapProcessMemoryEx
 .text.SendSyncRequestHook
                0x700060ec      0x660 SendSyncRequest.o
                0x700060ec                SendSyncRequestHook
 .text.SetGpuProt
                0x7000674c        0x8 SetGpuProt.o
                0x7000674c                SetGpuProt
 .text.SetWifiEnabled
                0x70006754       0x24 SetWifiEnabled.o
                0x70006754                SetWifiEnabled
 .text.TranslateHandle
                0x70006778      0x134 TranslateHandle.o
                0x70006778                TranslateHandle
 .text.UnmapProcessMemoryEx
                0x700068ac       0xf8 UnmapProcessMemoryEx.o
                0x700068ac                UnmapProcessMemoryEx
 .text.strncmp  0x700069a4       0xe4 C:/devkitPro/devkitARM/bin/../lib/gcc/arm-none-eabi/13.2.0/../../../../arm-none-eabi/lib/armv6k/fpu\libg.a(libc_a-strncmp.o)
                0x700069a4                strncmp
 .text.strlen   0x70006a88       0x5c C:/devkitPro/devkitARM/bin/../lib/gcc/arm-none-eabi/13.2.0/../../../../arm-none-eabi/lib/armv6k/fpu\libg.a(libc_a-strlen-stub.o)
                0x70006a88                strlen
 .text.memmove  0x70006ae4      0x150 C:/devkitPro/devkitARM/bin/../lib/gcc/arm-none-eabi/13.2.0/../../../../arm-none-eabi/lib/armv6k/fpu\libg.a(libc_a-memmove.o)
                0x70006ae4                memmove
 .text.memcpy   0x70006c34      0x11c C:/devkitPro/devkitARM/bin/../lib/gcc/arm-none-eabi/13.2.0/../../../../arm-none-eabi/lib/armv6k/fpu\libg.a(libc_a-memcpy-stub.o)
                0x70006c34                memcpy
 .text.memset   0x70006d50       0xf4 C:/devkitPro/devkitARM/bin/../lib/gcc/arm-none-eabi/13.2.0/../../../../arm-none-eabi/lib/armv6k/fpu\libg.a(libc_a-memset.o)
                0x70006d50                memset
 .text.strncpy  0x70006e44       0xc4 C:/devkitPro/devkitARM/bin/../lib/gcc/arm-none-eabi/13.2.0/../../../../arm-none-eabi/lib/armv6k/fpu\libg.a(libc_a-strncpy.o)
                0x70006e44                strncpy
 .text.__libc_init_array
                0x70006f08       0x84 C:/devkitPro/devkitARM/bin/../lib/gcc/arm-none-eabi/13.2.0/../../../../arm-none-eabi/lib/armv6k/fpu\libg.a(libc_a-init.o)
                0x70006f08                __libc_init_array
 *(.glue_7)
 .glue_7        0x70006f8c        0x0 linker stubs
 *(.glue_7t)
 .glue_7t       0x70006f8c        0x0 linker stubs
 *(.stub)
 *(.gnu.warning)
 *(.gnu.linkonce.t*)
 *(.fini)
 .fini          0x70006f8c        0xc C:/devkitPro/devkitARM/bin/../lib/gcc/arm-none-eabi/13.2.0/armv6k/fpu/crti.o
                0x70006f8c                _fini
 .fini          0x70006f98        0xc C:/devkitPro/devkitARM/bin/../lib/gcc/arm-none-eabi/13.2.0/armv6k/fpu/crtn.o
                0x70006fc0                        . = ALIGN (0x20)
 *fill*         0x70006fa4       0x1c 

.vfp11_veneer   0x70006fc0        0x0 load address 0x18006fc0
 .vfp11_veneer  0x70006fc0        0x0 linker stubs

.v4_bx          0x70006fc0        0x0 load address 0x18006fc0
 .v4_bx         0x70006fc0        0x0 linker stubs

.iplt           0x70006fc0        0x0 load address 0x18006fc0
 .iplt          0x70006fc0        0x0 C:/devkitPro/devkitARM/bin/../lib/gcc/arm-none-eabi/13.2.0/armv6k/fpu/crtbegin.o

.rodata         0x70006fc0       0x90 load address 0x18006fc0
 *(.rodata)
 *(.roda)
 *(.rodata.*)
 .rodata.isExceptionFatal.str1.4
                0x70006fc0       0x8c fatalExceptionHandlersMain.o
                                  0x5 (size before relaxing)
 .rodata.PLG_SignalEvent.str1.4
                0x7000704c        0x5 globals.o
 .rodata.doErrfThrowHook.str1.4
                0x7000704c        0x4 ipc.o
 .rodata.ControlService.str1.4
                0x7000704c       0x1f ControlService.o
 .rodata.GetHandleInfoHook.str1.4
                0x7000704c       0x11 GetHandleInfo.o
 .rodata.SendSyncRequestHook.str1.4
                0x7000704c       0x4d SendSyncRequest.o
 .rodata.TranslateHandle.str1.4
                0x7000704c        0xc TranslateHandle.o
 .rodata.safecpy_sz
                0x7000704c        0x4 utils.o
                0x7000704c                safecpy_sz
 *all.rodata*(*)
 *(.gnu.linkonce.r*)
                0x700070a0                        . = ALIGN (0x8)

.eh_frame       0x70007050        0x0 load address 0x18007050
 .eh_frame      0x70007050        0x0 C:/devkitPro/devkitARM/bin/../lib/gcc/arm-none-eabi/13.2.0/armv6k/fpu/crtbegin.o

.rel.dyn        0x70007050        0x0 load address 0x18007050
 .rel.iplt      0x70007050        0x0 C:/devkitPro/devkitARM/bin/../lib/gcc/arm-none-eabi/13.2.0/armv6k/fpu/crtbegin.o

.preinit_array  0x70007050        0x0 load address 0x18007050
                0x70007050                        PROVIDE (__preinit_array_start = .)
 *(.preinit_array)
                0x70007050                        PROVIDE (__preinit_array_end = .)

.init_array     0x70007050        0x4 load address 0x18007050
                0x70007050                        PROVIDE (__init_array_start = .)
 *(SORT_BY_NAME(.init_array.*))
 *(.init_array)
 .init_array    0x70007050        0x4 C:/devkitPro/devkitARM/bin/../lib/gcc/arm-none-eabi/13.2.0/armv6k/fpu/crtbegin.o
                0x70007054                        PROVIDE (__init_array_end = .)

.fini_array     0x70007054        0x4 load address 0x18007054
                [!provide]                        PROVIDE (__fini_array_start = .)
 *(.fini_array)
 .fini_array    0x70007054        0x4 C:/devkitPro/devkitARM/bin/../lib/gcc/arm-none-eabi/13.2.0/armv6k/fpu/crtbegin.o
 *(SORT_BY_NAME(.fini_array.*))
                [!provide]                        PROVIDE (__fini_array_end = .)

.ctors          0x70007058        0x0 load address 0x18007058
 *crtbegin.o(.ctors)
 *(EXCLUDE_FILE(*crtend.o) .ctors)
 *(SORT_BY_NAME(.ctors.*))
 *(.ctors)
                0x70007058                        . = ALIGN (0x4)

.dtors          0x70007058        0x0 load address 0x18007058
 *crtbegin.o(.dtors)
 *(EXCLUDE_FILE(*crtend.o) .dtors)
 *(SORT_BY_NAME(.dtors.*))
 *(.dtors)
                0x70007058                        . = ALIGN (0x4)

.ARM.extab      0x70007058        0x0 load address 0x18007058
 *(.ARM.extab* .gnu.linkonce.armextab.*)
                0x70007058                        __exidx_start = ABSOLUTE (.)

ARM.exidx       0x70007058        0x0 load address 0x18007058
 *(.ARM.exidx* .gnu.linkonce.armexidx.*)
                0x70007058                        __exidx_end = ABSOLUTE (.)

.data           0x70007058      0x168 load address 0x18007058
 *(.data)
 *(.data.*)
 .data.kExtParameters
                0x70007058      0x160 main.o
                0x70007058                kExtParameters
 .data.customInterruptEvent
                0x700071b8        0x8 utils.o
                0x700071bc                customInterruptEvent
 *(.gnu.linkonce.d*)
                0x700071c0                        . = ALIGN (0x20)

.igot.plt       0x700071c0        0x0 load address 0x180071c0
 .igot.plt      0x700071c0        0x0 C:/devkitPro/devkitARM/bin/../lib/gcc/arm-none-eabi/13.2.0/armv6k/fpu/crtbegin.o

.bss            0x70007400     0x2c00 load address 0x180071c0
                0x70007400                        . = ALIGN (0x20)
                0x70007400                        PROVIDE (__bss_start__ = ABSOLUTE (.))
 *(.dynbss)
 *(.bss)
 .bss           0x70007400       0x60 fatalExceptionHandlers.o
 *(.bss.*)
 .bss.completed.1
                0x70007460        0x1 C:/devkitPro/devkitARM/bin/../lib/gcc/arm-none-eabi/13.2.0/armv6k/fpu/crtbegin.o
 *fill*         0x70007461        0x3 
 .bss.object.0  0x70007464       0x18 C:/devkitPro/devkitARM/bin/../lib/gcc/arm-none-eabi/13.2.0/armv6k/fpu/crtbegin.o
 .bss.dbgParamContextId
                0x7000747c        0x4 debug.o
                0x7000747c                dbgParamContextId
 .bss.dbgParamWCR
                0x70007480        0x4 debug.o
                0x70007480                dbgParamWCR
 .bss.dbgParamDVA
                0x70007484        0x4 debug.o
                0x70007484                dbgParamDVA
 .bss.dbgParamWatchpointId
                0x70007488        0x4 debug.o
                0x70007488                dbgParamWatchpointId
 .bss.dbgParamsLock
                0x7000748c        0x8 debug.o
                0x7000748c                dbgParamsLock
 .bss.flagsKProcess
                0x70007494        0x4 globals.o
                0x70007494                flagsKProcess
 .bss.debugOffsetKProcess
                0x70007498        0x4 globals.o
                0x70007498                debugOffsetKProcess
 .bss.handleTableOffsetKProcess
                0x7000749c        0x4 globals.o
                0x7000749c                handleTableOffsetKProcess
 .bss.codeSetOffsetKProcess
                0x700074a0        0x4 globals.o
                0x700074a0                codeSetOffsetKProcess
 .bss.hwInfoOffsetKProcess
                0x700074a4        0x4 globals.o
                0x700074a4                hwInfoOffsetKProcess
 .bss.pidOffsetKProcess
                0x700074a8        0x4 globals.o
                0x700074a8                pidOffsetKProcess
 .bss.signalPluginEvent
                0x700074ac        0x4 globals.o
                0x700074ac                signalPluginEvent
 .bss.hasStartedRosalinaNetworkFuncsOnce
                0x700074b0        0x1 globals.o
                0x700074b0                hasStartedRosalinaNetworkFuncsOnce
 *fill*         0x700074b1        0x3 
 .bss.rosalinaState
                0x700074b4        0x4 globals.o
                0x700074b4                rosalinaState
 .bss.disableThreadRedirection
                0x700074b8        0x1 globals.o
                0x700074b8                disableThreadRedirection
 *fill*         0x700074b9        0x3 
 .bss.stolenSystemMemRegionSize
                0x700074bc        0x4 globals.o
                0x700074bc                stolenSystemMemRegionSize
 .bss.kextBasePa
                0x700074c0        0x4 globals.o
                0x700074c0                kextBasePa
 *fill*         0x700074c4        0x4 
 .bss.cfwInfo   0x700074c8      0x130 globals.o
                0x700074c8                cfwInfo
 .bss.kAlloc    0x700075f8        0x4 globals.o
                0x700075f8                kAlloc
 .bss.coreBarrier
                0x700075fc        0x4 globals.o
                0x700075fc                coreBarrier
 .bss.mcuReboot
                0x70007600        0x4 globals.o
                0x70007600                mcuReboot
 .bss.initFPU   0x70007604        0x4 globals.o
                0x70007604                initFPU
 .bss.interruptManager
                0x70007608        0x4 globals.o
                0x70007608                interruptManager
 .bss.InterruptManager__MapInterrupt
                0x7000760c        0x4 globals.o
                0x7000760c                InterruptManager__MapInterrupt
 .bss.nbSection0Modules
                0x70007610        0x4 globals.o
                0x70007610                nbSection0Modules
 .bss.originalHandlers
                0x70007614       0x20 globals.o
                0x70007614                originalHandlers
 .bss.coreCtxs  0x70007634        0x4 globals.o
                0x70007634                coreCtxs
 .bss.fcramDescriptor
                0x70007638        0x4 globals.o
                0x70007638                fcramDescriptor
 .bss.fcramLayout
                0x7000763c       0x18 globals.o
                0x7000763c                fcramLayout
 .bss.kernelVersion
                0x70007654        0x4 globals.o
                0x70007654                kernelVersion
 .bss.configPage
                0x70007658        0x4 globals.o
                0x70007658                configPage
 .bss.isDevUnit
                0x7000765c        0x4 globals.o
                0x7000765c                isDevUnit
 .bss.kernelUsrCopyFuncsEnd
                0x70007660        0x4 globals.o
                0x70007660                kernelUsrCopyFuncsEnd
 .bss.kernelUsrCopyFuncsStart
                0x70007664        0x4 globals.o
                0x70007664                kernelUsrCopyFuncsStart
 .bss.L1MMUTableAddrs
                0x70007668       0x10 globals.o
                0x70007668                L1MMUTableAddrs
 .bss.TTBCR     0x70007678        0x4 globals.o
                0x70007678                TTBCR
 .bss.exceptionStackTop
                0x7000767c        0x4 globals.o
                0x7000767c                exceptionStackTop
 .bss.isN3DS    0x70007680        0x1 globals.o
                0x70007680                isN3DS
 *fill*         0x70007681        0x3 
 .bss.SignalDebugEvent
                0x70007684        0x4 globals.o
                0x70007684                SignalDebugEvent
 .bss.officialPostProcessSvc
                0x70007688        0x4 globals.o
                0x70007688                officialPostProcessSvc
 .bss.kernelpanic
                0x7000768c        0x4 globals.o
                0x7000768c                kernelpanic
 .bss.svcFallbackHandler
                0x70007690        0x4 globals.o
                0x70007690                svcFallbackHandler
 .bss.kernelToUsrStrncpy
                0x70007694        0x4 globals.o
                0x70007694                kernelToUsrStrncpy
 .bss.kernelToUsrMemcpy32
                0x70007698        0x4 globals.o
                0x70007698                kernelToUsrMemcpy32
 .bss.kernelToUsrMemcpy8
                0x7000769c        0x4 globals.o
                0x7000769c                kernelToUsrMemcpy8
 .bss.usrToKernelStrncpy
                0x700076a0        0x4 globals.o
                0x700076a0                usrToKernelStrncpy
 .bss.usrToKernelMemcpy32
                0x700076a4        0x4 globals.o
                0x700076a4                usrToKernelMemcpy32
 .bss.usrToKernelMemcpy8
                0x700076a8        0x4 globals.o
                0x700076a8                usrToKernelMemcpy8
 .bss.invalidateInstructionCacheRange
                0x700076ac        0x4 globals.o
                0x700076ac                invalidateInstructionCacheRange
 .bss.flushDataCacheRange
                0x700076b0        0x4 globals.o
                0x700076b0                flushDataCacheRange
 .bss.KernelSetState
                0x700076b4        0x4 globals.o
                0x700076b4                KernelSetState
 .bss.UnmapProcessMemory
                0x700076b8        0x4 globals.o
                0x700076b8                UnmapProcessMemory
 .bss.SignalEvent
                0x700076bc        0x4 globals.o
                0x700076bc                SignalEvent
 .bss.DebugActiveProcess
                0x700076c0        0x4 globals.o
                0x700076c0                DebugActiveProcess
 .bss.GetProcessId
                0x700076c4        0x4 globals.o
                0x700076c4                GetProcessId
 .bss.OpenProcess
                0x700076c8        0x4 globals.o
                0x700076c8                OpenProcess
 .bss.SendSyncRequest
                0x700076cc        0x4 globals.o
                0x700076cc                SendSyncRequest
 .bss.ConnectToPort
                0x700076d0        0x4 globals.o
                0x700076d0                ConnectToPort
 .bss.GetThreadInfo
                0x700076d4        0x4 globals.o
                0x700076d4                GetThreadInfo
 .bss.GetProcessInfo
                0x700076d8        0x4 globals.o
                0x700076d8                GetProcessInfo
 .bss.GetSystemInfo
                0x700076dc        0x4 globals.o
                0x700076dc                GetSystemInfo
 .bss.GetHandleInfo
                0x700076e0        0x4 globals.o
                0x700076e0                GetHandleInfo
 .bss.CloseHandle
                0x700076e4        0x4 globals.o
                0x700076e4                CloseHandle
 .bss.CreateEvent
                0x700076e8        0x4 globals.o
                0x700076e8                CreateEvent
 .bss.SleepThread
                0x700076ec        0x4 globals.o
                0x700076ec                SleepThread
 .bss.CreateThread
                0x700076f0        0x4 globals.o
                0x700076f0                CreateThread
 .bss.doControlMemory
                0x700076f4        0x4 globals.o
                0x700076f4                doControlMemory
 .bss.ControlMemory
                0x700076f8        0x4 globals.o
                0x700076f8                ControlMemory
 .bss.KLinkedList_KBlockInfo__Clear
                0x700076fc        0x4 globals.o
                0x700076fc                KLinkedList_KBlockInfo__Clear
 .bss.KScheduler__AttemptSwitchingThreadContext
                0x70007700        0x4 globals.o
                0x70007700                KScheduler__AttemptSwitchingThreadContext
 .bss.KScheduler__AdjustThread
                0x70007704        0x4 globals.o
                0x70007704                KScheduler__AdjustThread
 .bss.KObjectMutex__ErrorOccured
                0x70007708        0x4 globals.o
                0x70007708                KObjectMutex__ErrorOccured
 .bss.KObjectMutex__WaitAndAcquire
                0x7000770c        0x4 globals.o
                0x7000770c                KObjectMutex__WaitAndAcquire
 .bss.KEvent__Signal
                0x70007710        0x4 globals.o
                0x70007710                KEvent__Signal
 .bss.KEvent__Clear
                0x70007714        0x4 globals.o
                0x70007714                KEvent__Clear
 .bss.KProcessHwInfo__MapListOfKBlockInfo
                0x70007718        0x4 globals.o
                0x70007718                KProcessHwInfo__MapListOfKBlockInfo
 .bss.KProcessHwInfo__GetListOfKBlockInfoForVA
                0x7000771c        0x4 globals.o
                0x7000771c                KProcessHwInfo__GetListOfKBlockInfoForVA
 .bss.KProcessHwInfo__CheckVaState
                0x70007720        0x4 globals.o
                0x70007720                KProcessHwInfo__CheckVaState
 .bss.KProcessHwInfo__UnmapProcessMemory
                0x70007724        0x4 globals.o
                0x70007724                KProcessHwInfo__UnmapProcessMemory
 .bss.KProcessHwInfo__MapProcessMemory
                0x70007728        0x4 globals.o
                0x70007728                KProcessHwInfo__MapProcessMemory
 .bss.KProcessHwInfo__QueryMemory
                0x7000772c        0x4 globals.o
                0x7000772c                KProcessHwInfo__QueryMemory
 .bss.KProcessHandleTable__CreateHandle
                0x70007730        0x4 globals.o
                0x70007730                KProcessHandleTable__CreateHandle
 .bss.WaitSynchronization1
                0x70007734        0x4 globals.o
                0x70007734                WaitSynchronization1
 .bss.KSynchronizationObject__Signal
                0x70007738        0x4 globals.o
                0x70007738                KSynchronizationObject__Signal
 .bss.KProcessHandleTable__ToKAutoObject
                0x7000773c        0x4 globals.o
                0x7000773c                KProcessHandleTable__ToKAutoObject
 .bss.KProcessHandleTable__ToKThread
                0x70007740        0x4 globals.o
                0x70007740                KProcessHandleTable__ToKThread
 .bss.KProcessHandleTable__ToKProcess
                0x70007744        0x4 globals.o
                0x70007744                KProcessHandleTable__ToKProcess
 .bss.KAutoObject__AddReference
                0x70007748        0x4 globals.o
                0x70007748                KAutoObject__AddReference
 .bss.KRecursiveLock__Unlock
                0x7000774c        0x4 globals.o
                0x7000774c                KRecursiveLock__Unlock
 .bss.KRecursiveLock__Lock
                0x70007750        0x4 globals.o
                0x70007750                KRecursiveLock__Lock
 .bss.synchronizationMutex
                0x70007754        0x4 globals.o
                0x70007754                synchronizationMutex
 .bss.threadList
                0x70007758        0x4 globals.o
                0x70007758                threadList
 .bss.criticalSectionLock
                0x7000775c        0x4 globals.o
                0x7000775c                criticalSectionLock
 .bss.KSession__dtor_orig
                0x70007760        0x4 ipc.o
 .bss.customSessionVtable
                0x70007764       0x40 ipc.o
 *fill*         0x700077a4        0x4 
 .bss.processLangemuAttributes
                0x700077a8      0x400 ipc.o
                0x700077a8                processLangemuAttributes
 .bss.processLangemuLock
                0x70007ba8        0x8 ipc.o
                0x70007ba8                processLangemuLock
 .bss.sessionInfosLock
                0x70007bb0        0x8 ipc.o
 .bss.nbActiveSessions
                0x70007bb8        0x4 ipc.o
 .bss.sessionInfos
                0x70007bbc     0x1590 ipc.o
 *fill*         0x7000914c      0x2b4 
 .bss.g_L2Table
                0x70009400      0x400 main.o
 .bss.g_rwxState
                0x70009800        0x4 mmu.o
 .bss.alteredSvcTable
                0x70009804      0x400 svc.o
                0x70009804                alteredSvcTable
 .bss.officialSVCs
                0x70009c04      0x1f8 svc.o
                0x70009c04                officialSVCs
 .bss.syscallDebugEventMaskLock.0
                0x70009dfc        0x8 KernelSetState.o
 .bss.svcSignalingEnabled
                0x70009e04        0x1 KernelSetState.o
                0x70009e04                svcSignalingEnabled
 .bss.forceBetterSoc
                0x70009e05        0x1 KernelSetState.o
 *fill*         0x70009e06        0x2 
 .bss.masks     0x70009e08       0x60 KernelSetState.o
 .bss.maskedPids
                0x70009e68        0xc KernelSetState.o
 .bss.nbEnabled
                0x70009e74        0x4 KernelSetState.o
 .bss.SGI0Handler
                0x70009e78        0x4 utils.o
                0x70009e78                SGI0Handler
 *(.gnu.linkonce.b*)
 *(COMMON)
                0x7000a000                        . = ALIGN (0x1000)
 *fill*         0x70009e7c      0x184 
                0x7000a000                        PROVIDE (__bss_end__ = ABSOLUTE (.))
                0x7000a000                        PROVIDE (__end__ = ABSOLUTE (.))

/DISCARD/
 *(.group .comment .note)

.stab
 *(.stab)

.stabstr
 *(.stabstr)

.stab.excl
 *(.stab.excl)

.stab.exclstr
 *(.stab.exclstr)

.stab.index
 *(.stab.index)

.stab.indexstr
 *(.stab.indexstr)

.debug
 *(.debug)

.line
 *(.line)

.debug_srcinfo
 *(.debug_srcinfo)

.debug_sfnames
 *(.debug_sfnames)

.debug_aranges  0x00000000      0x5b8
 *(.debug_aranges)
 .debug_aranges
                0x00000000       0x30 debug.o
 .debug_aranges
                0x00000030       0x38 fatalExceptionHandlersMain.o
 .debug_aranges
                0x00000068       0x38 globals.o
 .debug_aranges
                0x000000a0       0x60 ipc.o
 .debug_aranges
                0x00000100       0x38 main.o
 .debug_aranges
                0x00000138       0x78 mmu.o
 .debug_aranges
                0x000001b0       0x40 svc.o
 .debug_aranges
                0x000001f0       0x50 synchronization.o
 .debug_aranges
                0x00000240       0x20 ConnectToPort.o
 .debug_aranges
                0x00000260       0x20 ControlMemory.o
 .debug_aranges
                0x00000280       0x20 ControlMemoryUnsafe.o
 .debug_aranges
                0x000002a0       0x28 ControlProcess.o
 .debug_aranges
                0x000002c8       0x20 ControlService.o
 .debug_aranges
                0x000002e8       0x20 CopyHandle.o
 .debug_aranges
                0x00000308       0x20 CreateThread.o
 .debug_aranges
                0x00000328       0x20 ExitProcess.o
 .debug_aranges
                0x00000348       0x20 GetHandleInfo.o
 .debug_aranges
                0x00000368       0x20 GetProcessInfo.o
 .debug_aranges
                0x00000388       0x20 GetSystemInfo.o
 .debug_aranges
                0x000003a8       0x20 GetThreadInfo.o
 .debug_aranges
                0x000003c8       0x30 KernelSetState.o
 .debug_aranges
                0x000003f8       0x20 MapProcessMemoryEx.o
 .debug_aranges
                0x00000418       0x20 SendSyncRequest.o
 .debug_aranges
                0x00000438       0x20 SetGpuProt.o
 .debug_aranges
                0x00000458       0x20 SetWifiEnabled.o
 .debug_aranges
                0x00000478       0x20 TranslateHandle.o
 .debug_aranges
                0x00000498       0x20 UnmapProcessMemoryEx.o
 .debug_aranges
                0x000004b8       0x20 fatalExceptionHandlers.o
 .debug_aranges
                0x000004d8       0x20 start.o
 .debug_aranges
                0x000004f8       0x20 svcHandler.o
 .debug_aranges
                0x00000518       0x20 utils.o
 .debug_aranges
                0x00000538       0x20 Backdoor.o
 .debug_aranges
                0x00000558       0x20 Break.o
 .debug_aranges
                0x00000578       0x20 CustomBackdoor.o
 .debug_aranges
                0x00000598       0x20 wrappers.o

.debug_pubnames
 *(.debug_pubnames)

.debug_info     0x00000000    0x38223
 *(.debug_info)
 .debug_info    0x00000000     0x1c9a debug.o
 .debug_info    0x00001c9a     0x23c9 fatalExceptionHandlersMain.o
 .debug_info    0x00004063     0x34a4 globals.o
 .debug_info    0x00007507     0x268f ipc.o
 .debug_info    0x00009b96     0x3ca5 main.o
 .debug_info    0x0000d83b     0x24ec mmu.o
 .debug_info    0x0000fd27     0x2209 svc.o
 .debug_info    0x00011f30     0x215a synchronization.o
 .debug_info    0x0001408a     0x1d26 ConnectToPort.o
 .debug_info    0x00015db0     0x1b97 ControlMemory.o
 .debug_info    0x00017947     0x1e87 ControlMemoryUnsafe.o
 .debug_info    0x000197ce     0x24e3 ControlProcess.o
 .debug_info    0x0001bcb1     0x22b9 ControlService.o
 .debug_info    0x0001df6a     0x1d0c CopyHandle.o
 .debug_info    0x0001fc76     0x1d26 CreateThread.o
 .debug_info    0x0002199c     0x1b7c ExitProcess.o
 .debug_info    0x00023518     0x22df GetHandleInfo.o
 .debug_info    0x000257f7     0x1e1c GetProcessInfo.o
 .debug_info    0x00027613     0x1e80 GetSystemInfo.o
 .debug_info    0x00029493     0x1b20 GetThreadInfo.o
 .debug_info    0x0002afb3     0x22a4 KernelSetState.o
 .debug_info    0x0002d257     0x1dde MapProcessMemoryEx.o
 .debug_info    0x0002f035     0x2636 SendSyncRequest.o
 .debug_info    0x0003166b     0x196a SetGpuProt.o
 .debug_info    0x00032fd5     0x197a SetWifiEnabled.o
 .debug_info    0x0003494f     0x1bda TranslateHandle.o
 .debug_info    0x00036529     0x1bd6 UnmapProcessMemoryEx.o
 .debug_info    0x000380ff       0x25 fatalExceptionHandlers.o
 .debug_info    0x00038124       0x24 start.o
 .debug_info    0x00038148       0x25 svcHandler.o
 .debug_info    0x0003816d       0x25 utils.o
 .debug_info    0x00038192       0x24 Backdoor.o
 .debug_info    0x000381b6       0x24 Break.o
 .debug_info    0x000381da       0x24 CustomBackdoor.o
 .debug_info    0x000381fe       0x25 wrappers.o

.debug_abbrev   0x00000000     0x7551
 *(.debug_abbrev)
 .debug_abbrev  0x00000000      0x3f9 debug.o
 .debug_abbrev  0x000003f9      0x4ea fatalExceptionHandlersMain.o
 .debug_abbrev  0x000008e3      0x4fe globals.o
 .debug_abbrev  0x00000de1      0x546 ipc.o
 .debug_abbrev  0x00001327      0x5ae main.o
 .debug_abbrev  0x000018d5      0x5f1 mmu.o
 .debug_abbrev  0x00001ec6      0x4a0 svc.o
 .debug_abbrev  0x00002366      0x4f9 synchronization.o
 .debug_abbrev  0x0000285f      0x3b1 ConnectToPort.o
 .debug_abbrev  0x00002c10      0x3a1 ControlMemory.o
 .debug_abbrev  0x00002fb1      0x3f5 ControlMemoryUnsafe.o
 .debug_abbrev  0x000033a6      0x592 ControlProcess.o
 .debug_abbrev  0x00003938      0x4c6 ControlService.o
 .debug_abbrev  0x00003dfe      0x411 CopyHandle.o
 .debug_abbrev  0x0000420f      0x3a1 CreateThread.o
 .debug_abbrev  0x000045b0      0x35b ExitProcess.o
 .debug_abbrev  0x0000490b      0x4c2 GetHandleInfo.o
 .debug_abbrev  0x00004dcd      0x434 GetProcessInfo.o
 .debug_abbrev  0x00005201      0x3aa GetSystemInfo.o
 .debug_abbrev  0x000055ab      0x38c GetThreadInfo.o
 .debug_abbrev  0x00005937      0x534 KernelSetState.o
 .debug_abbrev  0x00005e6b      0x41a MapProcessMemoryEx.o
 .debug_abbrev  0x00006285      0x51a SendSyncRequest.o
 .debug_abbrev  0x0000679f      0x2b3 SetGpuProt.o
 .debug_abbrev  0x00006a52      0x2b3 SetWifiEnabled.o
 .debug_abbrev  0x00006d05      0x3ec TranslateHandle.o
 .debug_abbrev  0x000070f1      0x3c0 UnmapProcessMemoryEx.o
 .debug_abbrev  0x000074b1       0x14 fatalExceptionHandlers.o
 .debug_abbrev  0x000074c5       0x14 start.o
 .debug_abbrev  0x000074d9       0x14 svcHandler.o
 .debug_abbrev  0x000074ed       0x14 utils.o
 .debug_abbrev  0x00007501       0x14 Backdoor.o
 .debug_abbrev  0x00007515       0x14 Break.o
 .debug_abbrev  0x00007529       0x14 CustomBackdoor.o
 .debug_abbrev  0x0000753d       0x14 wrappers.o

.debug_line     0x00000000     0x90c3
 *(.debug_line)
 .debug_line    0x00000000      0x31a debug.o
 .debug_line    0x0000031a      0x632 fatalExceptionHandlersMain.o
 .debug_line    0x0000094c      0x2df globals.o
 .debug_line    0x00000c2b      0x802 ipc.o
 .debug_line    0x0000142d     0x1dbc main.o
 .debug_line    0x000031e9      0x7dc mmu.o
 .debug_line    0x000039c5      0x626 svc.o
 .debug_line    0x00003feb      0x78c synchronization.o
 .debug_line    0x00004777      0x224 ConnectToPort.o
 .debug_line    0x0000499b      0x1a9 ControlMemory.o
 .debug_line    0x00004b44      0x2df ControlMemoryUnsafe.o
 .debug_line    0x00004e23      0x876 ControlProcess.o
 .debug_line    0x00005699      0x4c6 ControlService.o
 .debug_line    0x00005b5f      0x2ec CopyHandle.o
 .debug_line    0x00005e4b      0x1df CreateThread.o
 .debug_line    0x0000602a      0x20d ExitProcess.o
 .debug_line    0x00006237      0x471 GetHandleInfo.o
 .debug_line    0x000066a8      0x542 GetProcessInfo.o
 .debug_line    0x00006bea      0x4f4 GetSystemInfo.o
 .debug_line    0x000070de      0x1f6 GetThreadInfo.o
 .debug_line    0x000072d4      0x7b3 KernelSetState.o
 .debug_line    0x00007a87      0x309 MapProcessMemoryEx.o
 .debug_line    0x00007d90      0x796 SendSyncRequest.o
 .debug_line    0x00008526      0x145 SetGpuProt.o
 .debug_line    0x0000866b      0x15f SetWifiEnabled.o
 .debug_line    0x000087ca      0x2d0 TranslateHandle.o
 .debug_line    0x00008a9a      0x23b UnmapProcessMemoryEx.o
 .debug_line    0x00008cd5       0xe8 fatalExceptionHandlers.o
 .debug_line    0x00008dbd       0x63 start.o
 .debug_line    0x00008e20       0x9a svcHandler.o
 .debug_line    0x00008eba       0x9e utils.o
 .debug_line    0x00008f58       0x52 Backdoor.o
 .debug_line    0x00008faa       0x4c Break.o
 .debug_line    0x00008ff6       0x4f CustomBackdoor.o
 .debug_line    0x00009045       0x7e wrappers.o

.debug_frame    0x00000000      0xb0c
 *(.debug_frame)
 .debug_frame   0x00000000       0x64 debug.o
 .debug_frame   0x00000064       0xac fatalExceptionHandlersMain.o
 .debug_frame   0x00000110       0x78 globals.o
 .debug_frame   0x00000188      0x170 ipc.o
 .debug_frame   0x000002f8       0xa8 main.o
 .debug_frame   0x000003a0      0x120 mmu.o
 .debug_frame   0x000004c0       0x98 svc.o
 .debug_frame   0x00000558       0xf0 synchronization.o
 .debug_frame   0x00000648       0x3c ConnectToPort.o
 .debug_frame   0x00000684       0x30 ControlMemory.o
 .debug_frame   0x000006b4       0x40 ControlMemoryUnsafe.o
 .debug_frame   0x000006f4       0x64 ControlProcess.o
 .debug_frame   0x00000758       0x40 ControlService.o
 .debug_frame   0x00000798       0x3c CopyHandle.o
 .debug_frame   0x000007d4       0x34 CreateThread.o
 .debug_frame   0x00000808       0x40 ExitProcess.o
 .debug_frame   0x00000848       0x54 GetHandleInfo.o
 .debug_frame   0x0000089c       0x40 GetProcessInfo.o
 .debug_frame   0x000008dc       0x2c GetSystemInfo.o
 .debug_frame   0x00000908       0x2c GetThreadInfo.o
 .debug_frame   0x00000934       0xa0 KernelSetState.o
 .debug_frame   0x000009d4       0x40 MapProcessMemoryEx.o
 .debug_frame   0x00000a14       0x48 SendSyncRequest.o
 .debug_frame   0x00000a5c       0x20 SetGpuProt.o
 .debug_frame   0x00000a7c       0x20 SetWifiEnabled.o
 .debug_frame   0x00000a9c       0x38 TranslateHandle.o
 .debug_frame   0x00000ad4       0x38 UnmapProcessMemoryEx.o

.debug_str      0x00000000     0x411e
 *(.debug_str)
 .debug_str     0x00000000     0x411e debug.o
                               0x1520 (size before relaxing)
 .debug_str     0x0000411e     0x1ad2 fatalExceptionHandlersMain.o
 .debug_str     0x0000411e     0x2343 globals.o
 .debug_str     0x0000411e     0x1a08 ipc.o
 .debug_str     0x0000411e     0x2378 main.o
 .debug_str     0x0000411e     0x17f8 mmu.o
 .debug_str     0x0000411e     0x1aa4 svc.o
 .debug_str     0x0000411e     0x1711 synchronization.o
 .debug_str     0x0000411e     0x15bd ConnectToPort.o
 .debug_str     0x0000411e     0x158d ControlMemory.o
 .debug_str     0x0000411e     0x1708 ControlMemoryUnsafe.o
 .debug_str     0x0000411e     0x18fe ControlProcess.o
 .debug_str     0x0000411e     0x16e2 ControlService.o
 .debug_str     0x0000411e     0x1551 CopyHandle.o
 .debug_str     0x0000411e     0x16f9 CreateThread.o
 .debug_str     0x0000411e     0x15c3 ExitProcess.o
 .debug_str     0x0000411e     0x1853 GetHandleInfo.o
 .debug_str     0x0000411e     0x1566 GetProcessInfo.o
 .debug_str     0x0000411e     0x177d GetSystemInfo.o
 .debug_str     0x0000411e     0x14c8 GetThreadInfo.o
 .debug_str     0x0000411e     0x1820 KernelSetState.o
 .debug_str     0x0000411e     0x167d MapProcessMemoryEx.o
 .debug_str     0x0000411e     0x1772 SendSyncRequest.o
 .debug_str     0x0000411e     0x1416 SetGpuProt.o
 .debug_str     0x0000411e     0x1420 SetWifiEnabled.o
 .debug_str     0x0000411e     0x150e TranslateHandle.o
 .debug_str     0x0000411e     0x1568 UnmapProcessMemoryEx.o
 .debug_str     0x0000411e       0x80 fatalExceptionHandlers.o
 .debug_str     0x0000411e       0x6f start.o
 .debug_str     0x0000411e       0x74 svcHandler.o
 .debug_str     0x0000411e       0x6f utils.o
 .debug_str     0x0000411e       0x76 Backdoor.o
 .debug_str     0x0000411e       0x73 Break.o
 .debug_str     0x0000411e       0x7c CustomBackdoor.o
 .debug_str     0x0000411e       0x76 wrappers.o

.debug_loc
 *(.debug_loc)

.debug_macinfo
 *(.debug_macinfo)
LOAD C:/devkitPro/devkitARM/bin/../lib/gcc/arm-none-eabi/13.2.0/armv6k/fpu/crti.o
LOAD C:/devkitPro/devkitARM/bin/../lib/gcc/arm-none-eabi/13.2.0/armv6k/fpu/crtbegin.o
LOAD debug.o
LOAD fatalExceptionHandlersMain.o
LOAD globals.o
LOAD ipc.o
LOAD main.o
LOAD mmu.o
LOAD svc.o
LOAD synchronization.o
LOAD ConnectToPort.o
LOAD ControlMemory.o
LOAD ControlMemoryUnsafe.o
LOAD ControlProcess.o
LOAD ControlService.o
LOAD CopyHandle.o
LOAD CreateThread.o
LOAD ExitProcess.o
LOAD GetHandleInfo.o
LOAD GetProcessInfo.o
LOAD GetSystemInfo.o
LOAD GetThreadInfo.o
LOAD KernelSetState.o
LOAD MapProcessMemoryEx.o
LOAD SendSyncRequest.o
LOAD SetGpuProt.o
LOAD SetWifiEnabled.o
LOAD TranslateHandle.o
LOAD UnmapProcessMemoryEx.o
LOAD fatalExceptionHandlers.o
LOAD start.o
LOAD svcHandler.o
LOAD utils.o
LOAD Backdoor.o
LOAD Break.o
LOAD CustomBackdoor.o
LOAD wrappers.o
START GROUP
LOAD C:/devkitPro/devkitARM/bin/../lib/gcc/arm-none-eabi/13.2.0/armv6k/fpu\libgcc.a
LOAD C:/devkitPro/devkitARM/bin/../lib/gcc/arm-none-eabi/13.2.0/../../../../arm-none-eabi/lib/armv6k/fpu\libg.a
LOAD C:/devkitPro/devkitARM/bin/../lib/gcc/arm-none-eabi/13.2.0/../../../../arm-none-eabi/lib/armv6k/fpu\libc.a
LOAD C:/devkitPro/devkitARM/bin/../lib/gcc/arm-none-eabi/13.2.0/../../../../arm-none-eabi/lib/armv6k/fpu\libsysbase.a
END GROUP
LOAD C:/devkitPro/devkitARM/bin/../lib/gcc/arm-none-eabi/13.2.0/armv6k/fpu/crtend.o
LOAD C:/devkitPro/devkitARM/bin/../lib/gcc/arm-none-eabi/13.2.0/armv6k/fpu/crtn.o
OUTPUT(C:/devkitPro/application/k11_extension/k11_extension.elf elf32-littlearm)
LOAD linker stubs

.ARM.attributes
                0x00000000       0x2c
 .ARM.attributes
                0x00000000       0x1c C:/devkitPro/devkitARM/bin/../lib/gcc/arm-none-eabi/13.2.0/armv6k/fpu/crti.o
 .ARM.attributes
                0x0000001c       0x30 C:/devkitPro/devkitARM/bin/../lib/gcc/arm-none-eabi/13.2.0/armv6k/fpu/crtbegin.o
 .ARM.attributes
                0x0000004c       0x30 debug.o
 .ARM.attributes
                0x0000007c       0x30 fatalExceptionHandlersMain.o
 .ARM.attributes
                0x000000ac       0x30 globals.o
 .ARM.attributes
                0x000000dc       0x30 ipc.o
 .ARM.attributes
                0x0000010c       0x30 main.o
 .ARM.attributes
                0x0000013c       0x30 mmu.o
 .ARM.attributes
                0x0000016c       0x30 svc.o
 .ARM.attributes
                0x0000019c       0x30 synchronization.o
 .ARM.attributes
                0x000001cc       0x30 ConnectToPort.o
 .ARM.attributes
                0x000001fc       0x30 ControlMemory.o
 .ARM.attributes
                0x0000022c       0x30 ControlMemoryUnsafe.o
 .ARM.attributes
                0x0000025c       0x30 ControlProcess.o
 .ARM.attributes
                0x0000028c       0x30 ControlService.o
 .ARM.attributes
                0x000002bc       0x30 CopyHandle.o
 .ARM.attributes
                0x000002ec       0x30 CreateThread.o
 .ARM.attributes
                0x0000031c       0x30 ExitProcess.o
 .ARM.attributes
                0x0000034c       0x30 GetHandleInfo.o
 .ARM.attributes
                0x0000037c       0x30 GetProcessInfo.o
 .ARM.attributes
                0x000003ac       0x30 GetSystemInfo.o
 .ARM.attributes
                0x000003dc       0x30 GetThreadInfo.o
 .ARM.attributes
                0x0000040c       0x30 KernelSetState.o
 .ARM.attributes
                0x0000043c       0x30 MapProcessMemoryEx.o
 .ARM.attributes
                0x0000046c       0x30 SendSyncRequest.o
 .ARM.attributes
                0x0000049c       0x30 SetGpuProt.o
 .ARM.attributes
                0x000004cc       0x30 SetWifiEnabled.o
 .ARM.attributes
                0x000004fc       0x30 TranslateHandle.o
 .ARM.attributes
                0x0000052c       0x30 UnmapProcessMemoryEx.o
 .ARM.attributes
                0x0000055c       0x1c fatalExceptionHandlers.o
 .ARM.attributes
                0x00000578       0x1a start.o
 .ARM.attributes
                0x00000592       0x1a svcHandler.o
 .ARM.attributes
                0x000005ac       0x1a utils.o
 .ARM.attributes
                0x000005c6       0x1a Backdoor.o
 .ARM.attributes
                0x000005e0       0x1a Break.o
 .ARM.attributes
                0x000005fa       0x1a CustomBackdoor.o
 .ARM.attributes
                0x00000614       0x1a wrappers.o
 .ARM.attributes
                0x0000062e       0x30 C:/devkitPro/devkitARM/bin/../lib/gcc/arm-none-eabi/13.2.0/../../../../arm-none-eabi/lib/armv6k/fpu\libg.a(libc_a-strncmp.o)
 .ARM.attributes
                0x0000065e       0x30 C:/devkitPro/devkitARM/bin/../lib/gcc/arm-none-eabi/13.2.0/../../../../arm-none-eabi/lib/armv6k/fpu\libg.a(libc_a-strlen-stub.o)
 .ARM.attributes
                0x0000068e       0x30 C:/devkitPro/devkitARM/bin/../lib/gcc/arm-none-eabi/13.2.0/../../../../arm-none-eabi/lib/armv6k/fpu\libg.a(libc_a-memmove.o)
 .ARM.attributes
                0x000006be       0x30 C:/devkitPro/devkitARM/bin/../lib/gcc/arm-none-eabi/13.2.0/../../../../arm-none-eabi/lib/armv6k/fpu\libg.a(libc_a-memcpy-stub.o)
 .ARM.attributes
                0x000006ee       0x30 C:/devkitPro/devkitARM/bin/../lib/gcc/arm-none-eabi/13.2.0/../../../../arm-none-eabi/lib/armv6k/fpu\libg.a(libc_a-memset.o)
 .ARM.attributes
                0x0000071e       0x30 C:/devkitPro/devkitARM/bin/../lib/gcc/arm-none-eabi/13.2.0/../../../../arm-none-eabi/lib/armv6k/fpu\libg.a(libc_a-strncpy.o)
 .ARM.attributes
                0x0000074e       0x1a C:/devkitPro/devkitARM/bin/../lib/gcc/arm-none-eabi/13.2.0/../../../../arm-none-eabi/lib/armv6k/fpu\libg.a(libc_a-strcmp.o)
 .ARM.attributes
                0x00000768       0x30 C:/devkitPro/devkitARM/bin/../lib/gcc/arm-none-eabi/13.2.0/../../../../arm-none-eabi/lib/armv6k/fpu\libg.a(libc_a-init.o)
 .ARM.attributes
                0x00000798       0x1c C:/devkitPro/devkitARM/bin/../lib/gcc/arm-none-eabi/13.2.0/armv6k/fpu/crtn.o

.debug_loclists
                0x00000000     0x609f
 .debug_loclists
                0x00000000      0x28b debug.o
 .debug_loclists
                0x0000028b      0x766 fatalExceptionHandlersMain.o
 .debug_loclists
                0x000009f1      0x1a0 globals.o
 .debug_loclists
                0x00000b91      0x3aa ipc.o
 .debug_loclists
                0x00000f3b     0x1491 main.o
 .debug_loclists
                0x000023cc      0x685 mmu.o
 .debug_loclists
                0x00002a51      0x133 svc.o
 .debug_loclists
                0x00002b84      0x3dd synchronization.o
 .debug_loclists
                0x00002f61       0xf8 ConnectToPort.o
 .debug_loclists
                0x00003059       0xb3 ControlMemory.o
 .debug_loclists
                0x0000310c      0x2a4 ControlMemoryUnsafe.o
 .debug_loclists
                0x000033b0      0x6e3 ControlProcess.o
 .debug_loclists
                0x00003a93      0x375 ControlService.o
 .debug_loclists
                0x00003e08      0x22d CopyHandle.o
 .debug_loclists
                0x00004035       0xf9 CreateThread.o
 .debug_loclists
                0x0000412e       0x49 ExitProcess.o
 .debug_loclists
                0x00004177      0x4ab GetHandleInfo.o
 .debug_loclists
                0x00004622      0x28c GetProcessInfo.o
 .debug_loclists
                0x000048ae      0x4fe GetSystemInfo.o
 .debug_loclists
                0x00004dac      0x110 GetThreadInfo.o
 .debug_loclists
                0x00004ebc      0x7d4 KernelSetState.o
 .debug_loclists
                0x00005690      0x1d5 MapProcessMemoryEx.o
 .debug_loclists
                0x00005865      0x54b SendSyncRequest.o
 .debug_loclists
                0x00005db0       0x29 SetGpuProt.o
 .debug_loclists
                0x00005dd9       0x29 SetWifiEnabled.o
 .debug_loclists
                0x00005e02       0xfb TranslateHandle.o
 .debug_loclists
                0x00005efd      0x1a2 UnmapProcessMemoryEx.o

.debug_rnglists
                0x00000000      0xf1a
 .debug_rnglists
                0x00000000       0x44 debug.o
 .debug_rnglists
                0x00000044       0x56 fatalExceptionHandlersMain.o
 .debug_rnglists
                0x0000009a       0x78 globals.o
 .debug_rnglists
                0x00000112       0x93 ipc.o
 .debug_rnglists
                0x000001a5      0x341 main.o
 .debug_rnglists
                0x000004e6       0xd6 mmu.o
 .debug_rnglists
                0x000005bc       0x45 svc.o
 .debug_rnglists
                0x00000601      0x143 synchronization.o
 .debug_rnglists
                0x00000744       0x36 ConnectToPort.o
 .debug_rnglists
                0x0000077a       0x22 ControlMemory.o
 .debug_rnglists
                0x0000079c       0x42 ControlMemoryUnsafe.o
 .debug_rnglists
                0x000007de      0x1b4 ControlProcess.o
 .debug_rnglists
                0x00000992       0xdf ControlService.o
 .debug_rnglists
                0x00000a71       0x50 CopyHandle.o
 .debug_rnglists
                0x00000ac1       0x20 CreateThread.o
 .debug_rnglists
                0x00000ae1       0x20 ExitProcess.o
 .debug_rnglists
                0x00000b01       0xe8 GetHandleInfo.o
 .debug_rnglists
                0x00000be9       0xb5 GetProcessInfo.o
 .debug_rnglists
                0x00000c9e       0x14 GetSystemInfo.o
 .debug_rnglists
                0x00000cb2       0x32 GetThreadInfo.o
 .debug_rnglists
                0x00000ce4       0x73 KernelSetState.o
 .debug_rnglists
                0x00000d57       0x4a MapProcessMemoryEx.o
 .debug_rnglists
                0x00000da1       0xe5 SendSyncRequest.o
 .debug_rnglists
                0x00000e86       0x13 SetGpuProt.o
 .debug_rnglists
                0x00000e99       0x13 SetWifiEnabled.o
 .debug_rnglists
                0x00000eac       0x3f TranslateHandle.o
 .debug_rnglists
                0x00000eeb       0x2f UnmapProcessMemoryEx.o

.debug_line_str
                0x00000000       0xe7
 .debug_line_str
                0x00000000       0xe7 fatalExceptionHandlers.o
                                 0x74 (size before relaxing)
 .debug_line_str
                0x000000e7       0x63 start.o
 .debug_line_str
                0x000000e7       0x68 svcHandler.o
 .debug_line_str
                0x000000e7       0x63 utils.o
 .debug_line_str
                0x000000e7       0x6a Backdoor.o
 .debug_line_str
                0x000000e7       0x67 Break.o
 .debug_line_str
                0x000000e7       0x70 CustomBackdoor.o
 .debug_line_str
                0x000000e7       0x6a wrappers.o
